target datalayout = "e-m:e-p270:32:32-p271:32:32-p272:64:64-i64:64-i128:128-f80:128-n8:16:32:64-S128"
target triple = "x86_64-pc-linux-gnu"

%"class.icu_77::UObject" = type { ptr }
%"class.icu_77::UnicodeString" = type { %"class.icu_77::Replaceable", %"union.icu_77::UnicodeString::StackBufferOrFields" }
%"class.icu_77::Replaceable" = type { %"class.icu_77::UObject" }
%"union.icu_77::UnicodeString::StackBufferOrFields" = type { %struct.anon.0, [32 x i8] }
%struct.anon.0 = type { i16, i32, i32, ptr }
%"class.icu_77::CFactory" = type { %"class.icu_77::LocaleKeyFactory.base", ptr, ptr }
%"class.icu_77::LocaleKeyFactory.base" = type <{ %"class.icu_77::ICUServiceFactory", %"class.icu_77::UnicodeString", i32 }>
%"class.icu_77::ICUServiceFactory" = type { %"class.icu_77::UObject" }
%"class.icu_77::Hashtable" = type { ptr, %struct.UHashtable }
%struct.UHashtable = type { ptr, ptr, ptr, ptr, ptr, ptr, i32, i32, i32, i32, float, float, i8, i8 }

; Function Attrs: inlinehint mustprogress nounwind uwtable
define linkonce_odr void @_ZN6icu_779HashtableD2Ev(ptr noundef nonnull align 8 dereferenceable(88) %0) unnamed_addr #6 comdat align 2 personality ptr @__gxx_personality_v0 {
  %2 = alloca ptr, align 8
  store ptr %0, ptr %2, align 8, !tbaa !86
  %3 = load ptr, ptr %2, align 8
  %4 = getelementptr inbounds nuw %"class.icu_77::Hashtable", ptr %3, i32 0, i32 0
  %5 = load ptr, ptr %4, align 8, !tbaa !87
  %6 = icmp ne ptr %5, null
  br i1 %6, label %7, label %11

7:                                                ; preds = %1
  %8 = getelementptr inbounds nuw %"class.icu_77::Hashtable", ptr %3, i32 0, i32 0
  %9 = load ptr, ptr %8, align 8, !tbaa !87
  invoke void @uhash_close_77(ptr noundef %9)
          to label %10 unwind label %12

10:                                               ; preds = %7
  br label %11

11:                                               ; preds = %10, %1
  ret void

12:                                               ; preds = %7
  %13 = landingpad { ptr, i32 }
          catch ptr null
  %14 = extractvalue { ptr, i32 } %13, 0
  call void @__clang_call_terminate(ptr %14) #15
  unreachable
}

; Function Attrs: mustprogress nounwind uwtable
define void @_ZN6icu_778CFactoryD2Ev(ptr noundef nonnull align 8 dereferenceable(96) %0) unnamed_addr #1 align 2 {
  %2 = alloca ptr, align 8
  store ptr %0, ptr %2, align 8, !tbaa !76
  %3 = load ptr, ptr %2, align 8
  store ptr getelementptr inbounds inrange(-16, 72) ({ [11 x ptr] }, ptr @_ZTVN6icu_778CFactoryE, i32 0, i32 0, i32 2), ptr %3, align 8, !tbaa !19
  %4 = getelementptr inbounds nuw %"class.icu_77::CFactory", ptr %3, i32 0, i32 1
  %5 = load ptr, ptr %4, align 8, !tbaa !78
  %6 = icmp eq ptr %5, null
  br i1 %6, label %11, label %7

7:                                                ; preds = %1
  %8 = load ptr, ptr %5, align 8, !tbaa !19
  %9 = getelementptr inbounds ptr, ptr %8, i64 1
  %10 = load ptr, ptr %9, align 8
  call void %10(ptr noundef nonnull align 8 dereferenceable(8) %5) #14
  br label %11

11:                                               ; preds = %7, %1
  %12 = getelementptr inbounds nuw %"class.icu_77::CFactory", ptr %3, i32 0, i32 2
  %13 = load ptr, ptr %12, align 8, !tbaa !85
  %14 = icmp eq ptr %13, null
  br i1 %14, label %16, label %15

15:                                               ; preds = %11
  call void @_ZN6icu_779HashtableD2Ev(ptr noundef nonnull align 8 dereferenceable(88) %13) #14
  call void @_ZN6icu_777UMemorydlEPv(ptr noundef %13) #14
  br label %16

16:                                               ; preds = %15, %11
  call void @_ZN6icu_7716LocaleKeyFactoryD2Ev(ptr noundef nonnull align 8 dereferenceable(76) %3) #14
  ret void
}