; Function Attrs: mustprogress nounwind uwtable
define void @_ZN6icu_778CFactoryD2Ev(ptr noundef nonnull align 8 dereferenceable(96) initializes((0, 8)) %0) unnamed_addr #1 align 2 personality ptr @__gxx_personality_v0 {
  store ptr getelementptr inbounds nuw inrange(-16, 72) (i8, ptr @_ZTVN6icu_778CFactoryE, i64 16), ptr %0, align 8, !tbaa !3
  %2 = getelementptr inbounds nuw i8, ptr %0, i64 80
  %3 = load ptr, ptr %2, align 8, !tbaa !46
  %4 = icmp eq ptr %3, null
  br i1 %4, label %9, label %5

5:                                                ; preds = %1
  %6 = load ptr, ptr %3, align 8, !tbaa !3
  %7 = getelementptr inbounds nuw i8, ptr %6, i64 8
  %8 = load ptr, ptr %7, align 8
  tail call void %8(ptr noundef nonnull align 8 dereferenceable(8) %3) #16
  br label %9

9:                                                ; preds = %5, %1
  %10 = getelementptr inbounds nuw i8, ptr %0, i64 88
  %11 = load ptr, ptr %10, align 8, !tbaa !54
  %12 = icmp eq ptr %11, null
  br i1 %12, label %19, label %13

13:                                               ; preds = %9
  %14 = load ptr, ptr %11, align 8, !tbaa !55
  %.not.i = icmp eq ptr %14, null
  br i1 %.not.i, label %_ZN6icu_779HashtableD2Ev.exit, label %15

15:                                               ; preds = %13
  invoke void @uhash_close_77(ptr noundef nonnull %14)
          to label %_ZN6icu_779HashtableD2Ev.exit unwind label %16

16:                                               ; preds = %15
  %17 = landingpad { ptr, i32 }
          catch ptr null
  %18 = extractvalue { ptr, i32 } %17, 0
  tail call void @__clang_call_terminate(ptr %18) #17
  unreachable

_ZN6icu_779HashtableD2Ev.exit:                    ; preds = %13, %15
  tail call void @_ZN6icu_777UMemorydlEPv(ptr noundef nonnull %11) #16
  br label %19

19:                                               ; preds = %_ZN6icu_779HashtableD2Ev.exit, %9
  tail call void @_ZN6icu_7716LocaleKeyFactoryD2Ev(ptr noundef nonnull align 8 dereferenceable(76) %0) #16
  ret void
}